target datalayout = "e-m:e-p270:32:32-p271:32:32-p272:64:64-i64:64-i128:128-f80:128-n8:16:32:64-S128"
target triple = "x86_64-pc-linux-gnu"

@.str = private unnamed_addr constant [126 x i8] c"generated/home/dtcxzyw/WorkSpace/Projects/compilers/llvm-opt-benchmark/bench/libquic/libquic/boringssl/crypto/asn1/a_object.c\00", align 1

; Function Attrs: nounwind uwtable
define hidden ptr @d2i_ASN1_OBJECT(ptr noundef %0, ptr noundef %1, i64 noundef %2) #0 {
  %4 = alloca ptr, align 8
  %5 = alloca ptr, align 8
  %6 = alloca ptr, align 8
  %7 = alloca i64, align 8
  %8 = alloca ptr, align 8
  %9 = alloca i64, align 8
  %10 = alloca i32, align 4
  %11 = alloca i32, align 4
  %12 = alloca i32, align 4
  %13 = alloca i32, align 4
  %14 = alloca ptr, align 8
  %15 = alloca i32, align 4
  store ptr %0, ptr %5, align 8, !tbaa !30
  store ptr %1, ptr %6, align 8, !tbaa !11
  store i64 %2, ptr %7, align 8, !tbaa !23
  call void @llvm.lifetime.start.p0(i64 8, ptr %8) #7
  call void @llvm.lifetime.start.p0(i64 8, ptr %9) #7
  call void @llvm.lifetime.start.p0(i64 4, ptr %10) #7
  call void @llvm.lifetime.start.p0(i64 4, ptr %11) #7
  call void @llvm.lifetime.start.p0(i64 4, ptr %12) #7
  call void @llvm.lifetime.start.p0(i64 4, ptr %13) #7
  call void @llvm.lifetime.start.p0(i64 8, ptr %14) #7
  store ptr null, ptr %14, align 8, !tbaa !6
  %16 = load ptr, ptr %6, align 8, !tbaa !11
  %17 = load ptr, ptr %16, align 8, !tbaa !19
  store ptr %17, ptr %8, align 8, !tbaa !19
  %18 = load i64, ptr %7, align 8, !tbaa !23
  %19 = call i32 @ASN1_get_object(ptr noundef %8, ptr noundef %9, ptr noundef %10, ptr noundef %11, i64 noundef %18)
  store i32 %19, ptr %12, align 4, !tbaa !18
  %20 = load i32, ptr %12, align 4, !tbaa !18
  %21 = and i32 %20, 128
  %22 = icmp ne i32 %21, 0
  br i1 %22, label %23, label %24

23:                                               ; preds = %3
  store i32 103, ptr %13, align 4, !tbaa !18
  br label %39

24:                                               ; preds = %3
  %25 = load i32, ptr %10, align 4, !tbaa !18
  %26 = icmp ne i32 %25, 6
  br i1 %26, label %27, label %28

27:                                               ; preds = %24
  store i32 116, ptr %13, align 4, !tbaa !18
  br label %39

28:                                               ; preds = %24
  %29 = load ptr, ptr %5, align 8, !tbaa !30
  %30 = load i64, ptr %9, align 8, !tbaa !23
  %31 = call ptr @c2i_ASN1_OBJECT(ptr noundef %29, ptr noundef %8, i64 noundef %30)
  store ptr %31, ptr %14, align 8, !tbaa !6
  %32 = load ptr, ptr %14, align 8, !tbaa !6
  %33 = icmp ne ptr %32, null
  br i1 %33, label %34, label %37

34:                                               ; preds = %28
  %35 = load ptr, ptr %8, align 8, !tbaa !19
  %36 = load ptr, ptr %6, align 8, !tbaa !11
  store ptr %35, ptr %36, align 8, !tbaa !19
  br label %37

37:                                               ; preds = %34, %28
  %38 = load ptr, ptr %14, align 8, !tbaa !6
  store ptr %38, ptr %4, align 8
  store i32 1, ptr %15, align 4
  br label %41

39:                                               ; preds = %27, %23
  %40 = load i32, ptr %13, align 4, !tbaa !18
  call void @ERR_put_error(i32 noundef 12, i32 noundef 0, i32 noundef %40, ptr noundef @.str, i32 noundef 262)
  store ptr null, ptr %4, align 8
  store i32 1, ptr %15, align 4
  br label %41

41:                                               ; preds = %39, %37
  call void @llvm.lifetime.end.p0(i64 8, ptr %14) #7
  call void @llvm.lifetime.end.p0(i64 4, ptr %13) #7
  call void @llvm.lifetime.end.p0(i64 4, ptr %12) #7
  call void @llvm.lifetime.end.p0(i64 4, ptr %11) #7
  call void @llvm.lifetime.end.p0(i64 4, ptr %10) #7
  call void @llvm.lifetime.end.p0(i64 8, ptr %9) #7
  call void @llvm.lifetime.end.p0(i64 8, ptr %8) #7
  %42 = load ptr, ptr %4, align 8
  ret ptr %42
}