; Function Attrs: nounwind uwtable
define hidden ptr @d2i_ASN1_OBJECT(ptr noundef captures(address_is_null) %0, ptr noundef captures(none) %1, i64 noundef %2) local_unnamed_addr #0 {
  %4 = alloca ptr, align 8
  %5 = alloca i64, align 8
  %6 = alloca i32, align 4
  %7 = alloca i32, align 4
  call void @llvm.lifetime.start.p0(i64 8, ptr nonnull %4) #9
  call void @llvm.lifetime.start.p0(i64 8, ptr nonnull %5) #9
  call void @llvm.lifetime.start.p0(i64 4, ptr nonnull %6) #9
  call void @llvm.lifetime.start.p0(i64 4, ptr nonnull %7) #9
  %8 = load ptr, ptr %1, align 8, !tbaa !14
  store ptr %8, ptr %4, align 8, !tbaa !14
  %9 = call i32 @ASN1_get_object(ptr noundef nonnull %4, ptr noundef nonnull %5, ptr noundef nonnull %6, ptr noundef nonnull %7, i64 noundef %2) #9
  %10 = and i32 %9, 128
  %.not = icmp eq i32 %10, 0
  br i1 %.not, label %11, label %18

11:                                               ; preds = %3
  %12 = load i32, ptr %6, align 4, !tbaa !19
  %.not9 = icmp eq i32 %12, 6
  br i1 %.not9, label %13, label %18

13:                                               ; preds = %11
  %14 = load i64, ptr %5, align 8, !tbaa !20
  %15 = call ptr @c2i_ASN1_OBJECT(ptr noundef %0, ptr noundef nonnull %4, i64 noundef %14)
  %.not10 = icmp eq ptr %15, null
  br i1 %.not10, label %19, label %16

16:                                               ; preds = %13
  %17 = load ptr, ptr %4, align 8, !tbaa !14
  store ptr %17, ptr %1, align 8, !tbaa !14
  br label %19

18:                                               ; preds = %11, %3
  %.0 = phi i32 [ 103, %3 ], [ 116, %11 ]
  call void @ERR_put_error(i32 noundef 12, i32 noundef 0, i32 noundef %.0, ptr noundef nonnull @.str, i32 noundef 262) #9
  br label %19

19:                                               ; preds = %13, %16, %18
  %.08 = phi ptr [ null, %18 ], [ %15, %16 ], [ null, %13 ]
  call void @llvm.lifetime.end.p0(i64 4, ptr nonnull %7) #9
  call void @llvm.lifetime.end.p0(i64 4, ptr nonnull %6) #9
  call void @llvm.lifetime.end.p0(i64 8, ptr nonnull %5) #9
  call void @llvm.lifetime.end.p0(i64 8, ptr nonnull %4) #9
  ret ptr %.08
}